target datalayout = "e-m:e-p270:32:32-p271:32:32-p272:64:64-i64:64-i128:128-f80:128-n8:16:32:64-S128"
target triple = "x86_64-pc-linux-gnu"

%class.QRect = type { i32, i32, i32, i32 }
%class.QPoint = type { i32, i32 }

; Function Attrs: mustprogress nounwind uwtable
define linkonce_odr i64 @_ZNK5QRect8topRightEv(ptr noundef nonnull align 4 dereferenceable(16) %0) #2 comdat align 2 {
  %2 = alloca %class.QPoint, align 4
  %3 = alloca ptr, align 8
  store ptr %0, ptr %3, align 8
  %4 = load ptr, ptr %3, align 8
  %5 = getelementptr inbounds %class.QRect, ptr %4, i32 0, i32 2
  %6 = load i32, ptr %5, align 4
  %7 = getelementptr inbounds %class.QRect, ptr %4, i32 0, i32 1
  %8 = load i32, ptr %7, align 4
  call void @_ZN6QPointC2Eii(ptr noundef nonnull align 4 dereferenceable(8) %2, i32 noundef %6, i32 noundef %8) #11
  %9 = load i64, ptr %2, align 4
  ret i64 %9
}

; Function Attrs: mustprogress nounwind uwtable
define linkonce_odr noundef i32 @_ZNK5QRect5widthEv(ptr noundef nonnull align 4 dereferenceable(16) %0) #2 comdat align 2 {
  %2 = alloca ptr, align 8
  store ptr %0, ptr %2, align 8
  %3 = load ptr, ptr %2, align 8
  %4 = getelementptr inbounds %class.QRect, ptr %3, i32 0, i32 2
  %5 = load i32, ptr %4, align 4
  %6 = getelementptr inbounds %class.QRect, ptr %3, i32 0, i32 0
  %7 = load i32, ptr %6, align 4
  %8 = sub i32 %5, %7
  %9 = add i32 %8, 1
  ret i32 %9
}

; Function Attrs: mustprogress nounwind uwtable
define linkonce_odr void @_ZN6QPointC2Eii(ptr noundef nonnull align 4 dereferenceable(8) %0, i32 noundef %1, i32 noundef %2) unnamed_addr #2 comdat align 2 {
  %4 = alloca ptr, align 8
  %5 = alloca i32, align 4
  %6 = alloca i32, align 4
  store ptr %0, ptr %4, align 8
  store i32 %1, ptr %5, align 4
  store i32 %2, ptr %6, align 4
  %7 = load ptr, ptr %4, align 8
  %8 = getelementptr inbounds %class.QPoint, ptr %7, i32 0, i32 0
  %9 = load i32, ptr %5, align 4
  store i32 %9, ptr %8, align 4
  %10 = getelementptr inbounds %class.QPoint, ptr %7, i32 0, i32 1
  %11 = load i32, ptr %6, align 4
  store i32 %11, ptr %10, align 4
  ret void
}

; Function Attrs: mustprogress nounwind uwtable
define linkonce_odr noundef i32 @_ZNK5QRect6heightEv(ptr noundef nonnull align 4 dereferenceable(16) %0) #2 comdat align 2 {
  %2 = alloca ptr, align 8
  store ptr %0, ptr %2, align 8
  %3 = load ptr, ptr %2, align 8
  %4 = getelementptr inbounds %class.QRect, ptr %3, i32 0, i32 3
  %5 = load i32, ptr %4, align 4
  %6 = getelementptr inbounds %class.QRect, ptr %3, i32 0, i32 1
  %7 = load i32, ptr %6, align 4
  %8 = sub i32 %5, %7
  %9 = add i32 %8, 1
  ret i32 %9
}

; Function Attrs: mustprogress nounwind uwtable
define linkonce_odr noundef i32 @_ZNK5QRect1yEv(ptr noundef nonnull align 4 dereferenceable(16) %0) #2 comdat align 2 {
  %2 = alloca ptr, align 8
  store ptr %0, ptr %2, align 8
  %3 = load ptr, ptr %2, align 8
  %4 = getelementptr inbounds %class.QRect, ptr %3, i32 0, i32 1
  %5 = load i32, ptr %4, align 4
  ret i32 %5
}

; Function Attrs: mustprogress nounwind uwtable
define linkonce_odr noundef i32 @_ZNK5QRect1xEv(ptr noundef nonnull align 4 dereferenceable(16) %0) #2 comdat align 2 {
  %2 = alloca ptr, align 8
  store ptr %0, ptr %2, align 8
  %3 = load ptr, ptr %2, align 8
  %4 = getelementptr inbounds %class.QRect, ptr %3, i32 0, i32 0
  %5 = load i32, ptr %4, align 4
  ret i32 %5
}

; Function Attrs: mustprogress uwtable
define void @_ZNK21RelatedPacketDelegate13drawCheckMarkEP8QPainter5QRect(ptr noundef nonnull align 8 dereferenceable(36) %0, ptr noundef %1, i64 %2, i64 %3) #0 align 2 {
  %5 = alloca %class.QRect, align 4
  %6 = alloca ptr, align 8
  %7 = alloca ptr, align 8
  %8 = alloca [3 x %class.QPoint], align 16
  %9 = getelementptr inbounds { i64, i64 }, ptr %5, i32 0, i32 0
  store i64 %2, ptr %9, align 4
  %10 = getelementptr inbounds { i64, i64 }, ptr %5, i32 0, i32 1
  store i64 %3, ptr %10, align 4
  store ptr %0, ptr %6, align 8
  store ptr %1, ptr %7, align 8
  %11 = getelementptr inbounds [3 x %class.QPoint], ptr %8, i64 0, i64 0
  %12 = call noundef i32 @_ZNK5QRect1xEv(ptr noundef nonnull align 4 dereferenceable(16) %5) #11
  %13 = call noundef i32 @_ZNK5QRect1yEv(ptr noundef nonnull align 4 dereferenceable(16) %5) #11
  %14 = call noundef i32 @_ZNK5QRect6heightEv(ptr noundef nonnull align 4 dereferenceable(16) %5) #11
  %15 = sdiv i32 %14, 2
  %16 = add i32 %13, %15
  call void @_ZN6QPointC2Eii(ptr noundef nonnull align 4 dereferenceable(8) %11, i32 noundef %12, i32 noundef %16) #11
  %17 = getelementptr inbounds %class.QPoint, ptr %11, i64 1
  %18 = call noundef i32 @_ZNK5QRect1xEv(ptr noundef nonnull align 4 dereferenceable(16) %5) #11
  %19 = call noundef i32 @_ZNK5QRect5widthEv(ptr noundef nonnull align 4 dereferenceable(16) %5) #11
  %20 = sdiv i32 %19, 4
  %21 = add i32 %18, %20
  %22 = call noundef i32 @_ZNK5QRect1yEv(ptr noundef nonnull align 4 dereferenceable(16) %5) #11
  %23 = call noundef i32 @_ZNK5QRect6heightEv(ptr noundef nonnull align 4 dereferenceable(16) %5) #11
  %24 = mul i32 %23, 3
  %25 = sdiv i32 %24, 4
  %26 = add i32 %22, %25
  call void @_ZN6QPointC2Eii(ptr noundef nonnull align 4 dereferenceable(8) %17, i32 noundef %21, i32 noundef %26) #11
  %27 = getelementptr inbounds %class.QPoint, ptr %17, i64 1
  %28 = call i64 @_ZNK5QRect8topRightEv(ptr noundef nonnull align 4 dereferenceable(16) %5) #11
  store i64 %28, ptr %27, align 8
  %29 = load ptr, ptr %7, align 8
  %30 = getelementptr inbounds [3 x %class.QPoint], ptr %8, i64 0, i64 0
  call void @_ZN8QPainter12drawPolylineEPK6QPointi(ptr noundef nonnull align 8 dereferenceable(8) %29, ptr noundef %30, i32 noundef 3)
  ret void
}