; Function Attrs: mustprogress uwtable
define void @_ZNK21RelatedPacketDelegate13drawCheckMarkEP8QPainter5QRect(ptr nocapture noundef nonnull readnone align 8 dereferenceable(36) %0, ptr noundef nonnull %1, i64 %2, i64 %3) local_unnamed_addr #0 align 2 {
  %5 = alloca [3 x %class.QPoint], align 16
  %.sroa.0.0.extract.trunc = trunc i64 %2 to i32
  %.sroa.4.0.extract.shift = lshr i64 %2, 32
  %.sroa.4.0.extract.trunc = trunc i64 %.sroa.4.0.extract.shift to i32
  %.sroa.9.8.extract.trunc = trunc i64 %3 to i32
  %.sroa.12.8.extract.shift = lshr i64 %3, 32
  %.sroa.12.8.extract.trunc = trunc i64 %.sroa.12.8.extract.shift to i32
  %reass.sub = sub i32 %.sroa.12.8.extract.trunc, %.sroa.4.0.extract.trunc
  %6 = add i32 %reass.sub, 1
  %7 = sdiv i32 %6, 2
  %8 = add i32 %7, %.sroa.4.0.extract.trunc
  store i32 %.sroa.0.0.extract.trunc, ptr %5, align 16
  %9 = getelementptr inbounds i8, ptr %5, i64 4
  store i32 %8, ptr %9, align 4
  %10 = getelementptr inbounds i8, ptr %5, i64 8
  %reass.sub9 = sub i32 %.sroa.9.8.extract.trunc, %.sroa.0.0.extract.trunc
  %11 = add i32 %reass.sub9, 1
  %12 = sdiv i32 %11, 4
  %13 = add i32 %12, %.sroa.0.0.extract.trunc
  %14 = mul i32 %6, 3
  %15 = sdiv i32 %14, 4
  %16 = add i32 %15, %.sroa.4.0.extract.trunc
  store i32 %13, ptr %10, align 8
  %17 = getelementptr inbounds i8, ptr %5, i64 12
  store i32 %16, ptr %17, align 4
  %18 = getelementptr inbounds i8, ptr %5, i64 16
  %.sroa.2.0.insert.shift.i = and i64 %2, -4294967296
  %.sroa.0.0.insert.ext.i = and i64 %3, 4294967295
  %.sroa.0.0.insert.insert.i = or disjoint i64 %.sroa.0.0.insert.ext.i, %.sroa.2.0.insert.shift.i
  store i64 %.sroa.0.0.insert.insert.i, ptr %18, align 16
  call void @_ZN8QPainter12drawPolylineEPK6QPointi(ptr noundef nonnull align 8 dereferenceable(8) %1, ptr noundef nonnull %5, i32 noundef 3)
  ret void
}